target datalayout = "e-m:e-p270:32:32-p271:32:32-p272:64:64-i64:64-i128:128-f80:128-n8:16:32:64-S128"
target triple = "x86_64-pc-linux-gnu"

; Function Attrs: mustprogress uwtable
define void @_ZN3gmx18InMemorySerializer6doIvecEPA3_i(ptr noundef nonnull align 8 dereferenceable(16) %0, ptr noundef %1) unnamed_addr #1 align 2 {
  %3 = alloca ptr, align 8
  %4 = alloca ptr, align 8
  %5 = alloca ptr, align 8
  %6 = alloca ptr, align 8
  %7 = alloca ptr, align 8
  %8 = alloca ptr, align 8
  store ptr %0, ptr %3, align 8
  store ptr %1, ptr %4, align 8
  %9 = load ptr, ptr %3, align 8
  %10 = load ptr, ptr %4, align 8
  store ptr %10, ptr %5, align 8
  %11 = load ptr, ptr %5, align 8
  %12 = getelementptr inbounds [3 x i32], ptr %11, i64 0, i64 0
  store ptr %12, ptr %6, align 8
  %13 = load ptr, ptr %5, align 8
  %14 = getelementptr inbounds [3 x i32], ptr %13, i64 0, i64 0
  %15 = getelementptr inbounds i32, ptr %14, i64 3
  store ptr %15, ptr %7, align 8
  br label %16

16:                                               ; preds = %26, %2
  %17 = load ptr, ptr %6, align 8
  %18 = load ptr, ptr %7, align 8
  %19 = icmp ne ptr %17, %18
  br i1 %19, label %20, label %29

20:                                               ; preds = %16
  %21 = load ptr, ptr %6, align 8
  store ptr %21, ptr %8, align 8
  %22 = load ptr, ptr %8, align 8
  %23 = load ptr, ptr %9, align 8
  %24 = getelementptr inbounds ptr, ptr %23, i64 7
  %25 = load ptr, ptr %24, align 8
  call void %25(ptr noundef nonnull align 8 dereferenceable(16) %9, ptr noundef %22)
  br label %26

26:                                               ; preds = %20
  %27 = load ptr, ptr %6, align 8
  %28 = getelementptr inbounds i32, ptr %27, i32 1
  store ptr %28, ptr %6, align 8
  br label %16

29:                                               ; preds = %16
  ret void
}